; Function Attrs: nounwind uwtable
define internal void @HIDAPI_DriverGameCube_CloseJoystick(ptr noundef %0, ptr readnone captures(none) %1) #0 {
  %3 = getelementptr inbounds nuw i8, ptr %0, i64 112
  %4 = load ptr, ptr %3, align 8
  %5 = getelementptr inbounds nuw i8, ptr %4, i64 81
  %6 = load i8, ptr %5, align 1, !range !3, !noundef !9
  %7 = trunc nuw i8 %6 to i1
  br i1 %7, label %8, label %11

8:                                                ; preds = %2
  %9 = getelementptr inbounds nuw i8, ptr %4, i64 76
  %10 = tail call i32 @SDL_HIDAPI_SendRumble(ptr noundef nonnull %0, ptr noundef nonnull %9, i32 noundef 5) #7
  store i8 0, ptr %5, align 1
  br label %11

11:                                               ; preds = %8, %2
  ret void
}